; Function Attrs: mustprogress uwtable
define dso_local void @_ZN4absl18container_internal36SetHashtablezSampleParameterInternalEi(i32 noundef %0) local_unnamed_addr #0 {
  %2 = icmp sgt i32 %0, 0
  br i1 %2, label %3, label %4

3:                                                ; preds = %1
  store atomic i32 %0, ptr @_ZN4absl18container_internal12_GLOBAL__N_129g_hashtablez_sample_parameterE.0 release, align 4
  br label %6

4:                                                ; preds = %1
  %5 = sext i32 %0 to i64
  tail call void (i32, ptr, i32, ptr, ...) @_ZN4absl16raw_log_internal6RawLogENS_11LogSeverityEPKciS3_z(i32 noundef 2, ptr noundef nonnull getelementptr inbounds nuw (i8, ptr @.str, i64 123), i32 noundef 297, ptr noundef nonnull @.str.1, i64 noundef %5)
  br label %6

6:                                                ; preds = %4, %3
  ret void
}